cintervaltree.intervaltree
IntervalTree
p0
((lp1
cintervaltree.interval
Interval
p2
(I0
I1048576
(dp3
S'md5sum'
p4
S'efa0b12c00fcd025f9bb24b4bbafdc26'
p5
stp6
Rp7
ag2
(I1048576
I2097152
(dp8
g4
S'86c446ea359acb897b2b622d6d8ff3b8'
p9
stp10
Rp11
ag2
(I2097152
I3145728
(dp12
g4
S'6bae43a0c5c6de9d628114a4987eee28'
p13
stp14
Rp15
ag2
(I3145728
I4194304
(dp16
g4
S'0703a5f69cd342d85bc0dffe4daf0432'
p17
stp18
Rp19
ag2
(I4194304
I5242880
(dp20
g4
S'07b7d7041ec060fdfa4b35fb73b0324b'
p21
stp22
Rp23
ag2
(I5242880
I6291456
(dp24
g4
S'42c174280504a41536414c7c4119ebca'
p25
stp26
Rp27
ag2
(I6291456
I7340032
(dp28
g4
S'4643bfaad70e5fd1e50df13889207d86'
p29
stp30
Rp31
ag2
(I7340032
I8388608
(dp32
g4
S'803aeea62bad0d6a31e63f3e6647e9c4'
p33
stp34
Rp35
ag2
(I8388608
I9437184
(dp36
g4
S'86fe78bd9182ab0920b0e3d2882206f6'
p37
stp38
Rp39
ag2
(I9437184
I9944322
(dp40
g4
S'052e8964fbc18d41c883c15feceae565'
p41
stp42
Rp43
atp44
Rp45
.